; ModuleID = '16/1409.c'
source_filename = "16/1409.c"
target datalayout = "e-m:e-p270:32:32-p271:32:32-p272:64:64-i64:64-f80:128-n8:16:32:64-S128"
target triple = "x86_64-pc-linux-gnu"

@.str = private unnamed_addr constant [3 x i8] c"%d\00", align 1
@.str.1 = private unnamed_addr constant [4 x i8] c"%d\0A\00", align 1
@.str.2 = private unnamed_addr constant [6 x i8] c"%d%d\0A\00", align 1
@.str.3 = private unnamed_addr constant [8 x i8] c"%d%d%d\0A\00", align 1
@.str.4 = private unnamed_addr constant [10 x i8] c"%d%d%d%d\0A\00", align 1

; Function Attrs: noinline nounwind uwtable
define dso_local i32 @main() #0 {
  %1 = alloca i32, align 4
  %2 = alloca i32, align 4
  %3 = alloca i32, align 4
  %4 = alloca i32, align 4
  %5 = alloca i32, align 4
  %6 = alloca i32, align 4
  store i32 0, i32* %1, align 4
  %7 = call i32 (i8*, ...) @__isoc99_scanf(i8* getelementptr inbounds ([3 x i8], [3 x i8]* @.str, i64 0, i64 0), i32* %6)
  %8 = load i32, i32* %6, align 4
  %9 = sdiv i32 %8, 1000
  store i32 %9, i32* %2, align 4
  %10 = load i32, i32* %6, align 4
  %11 = load i32, i32* %2, align 4
  %12 = mul nsw i32 %11, 1000
  %13 = sub nsw i32 %10, %12
  %14 = sdiv i32 %13, 100
  store i32 %14, i32* %3, align 4
  %15 = load i32, i32* %6, align 4
  %16 = load i32, i32* %2, align 4
  %17 = mul nsw i32 %16, 1000
  %18 = sub nsw i32 %15, %17
  %19 = load i32, i32* %3, align 4
  %20 = mul nsw i32 %19, 100
  %21 = sub nsw i32 %18, %20
  %22 = sdiv i32 %21, 10
  store i32 %22, i32* %4, align 4
  %23 = load i32, i32* %6, align 4
  %24 = load i32, i32* %2, align 4
  %25 = mul nsw i32 %24, 1000
  %26 = sub nsw i32 %23, %25
  %27 = load i32, i32* %3, align 4
  %28 = mul nsw i32 %27, 100
  %29 = sub nsw i32 %26, %28
  %30 = load i32, i32* %4, align 4
  %31 = mul nsw i32 %30, 10
  %32 = sub nsw i32 %29, %31
  store i32 %32, i32* %5, align 4
  %33 = load i32, i32* %2, align 4
  %34 = icmp eq i32 %33, 0
  br i1 %34, label %35, label %55

35:                                               ; preds = %0
  %36 = load i32, i32* %3, align 4
  %37 = icmp eq i32 %36, 0
  br i1 %37, label %38, label %49

38:                                               ; preds = %35
  %39 = load i32, i32* %4, align 4
  %40 = icmp eq i32 %39, 0
  br i1 %40, label %41, label %44

41:                                               ; preds = %38
  %42 = load i32, i32* %5, align 4
  %43 = call i32 (i8*, ...) @printf(i8* getelementptr inbounds ([4 x i8], [4 x i8]* @.str.1, i64 0, i64 0), i32 %42)
  br label %48

44:                                               ; preds = %38
  %45 = load i32, i32* %5, align 4
  %46 = load i32, i32* %4, align 4
  %47 = call i32 (i8*, ...) @printf(i8* getelementptr inbounds ([6 x i8], [6 x i8]* @.str.2, i64 0, i64 0), i32 %45, i32 %46)
  br label %48

48:                                               ; preds = %44, %41
  br label %54

49:                                               ; preds = %35
  %50 = load i32, i32* %5, align 4
  %51 = load i32, i32* %4, align 4
  %52 = load i32, i32* %3, align 4
  %53 = call i32 (i8*, ...) @printf(i8* getelementptr inbounds ([8 x i8], [8 x i8]* @.str.3, i64 0, i64 0), i32 %50, i32 %51, i32 %52)
  br label %54

54:                                               ; preds = %49, %48
  br label %61

55:                                               ; preds = %0
  %56 = load i32, i32* %5, align 4
  %57 = load i32, i32* %4, align 4
  %58 = load i32, i32* %3, align 4
  %59 = load i32, i32* %2, align 4
  %60 = call i32 (i8*, ...) @printf(i8* getelementptr inbounds ([10 x i8], [10 x i8]* @.str.4, i64 0, i64 0), i32 %56, i32 %57, i32 %58, i32 %59)
  br label %61

61:                                               ; preds = %55, %54
  ret i32 0
}

declare dso_local i32 @__isoc99_scanf(i8*, ...) #1

declare dso_local i32 @printf(i8*, ...) #1


!llvm.module.flags = !{!0}
!llvm.ident = !{!1}

!0 = !{i32 1, !"wchar_size", i32 4}
!1 = !{!"clang version 10.0.0-4ubuntu1 "}
